target datalayout = "e-m:e-p270:32:32-p271:32:32-p272:64:64-i64:64-i128:128-f80:128-n8:16:32:64-S128"
target triple = "x86_64-pc-linux-gnu"

%struct.PACKET = type { ptr, i64 }

@.str.25 = private unnamed_addr constant [29 x i8] c"../openssl/test/packettest.c\00", align 1
@.str.94 = private unnamed_addr constant [48 x i8] c"PACKET_buf_init(&pkt, (unsigned char*)buf1, 10)\00", align 1
@.str.99 = private unnamed_addr constant [48 x i8] c"PACKET_buf_init(&pkt, (unsigned char*)buf2, 10)\00", align 1
@.str.102 = private unnamed_addr constant [32 x i8] c"PACKET_contains_zero_byte(&pkt)\00", align 1

; Function Attrs: inlinehint nounwind uwtable
define internal i32 @PACKET_contains_zero_byte(ptr noundef %0) #4 {
  %2 = alloca ptr, align 8
  store ptr %0, ptr %2, align 8, !tbaa !33
  %3 = load ptr, ptr %2, align 8, !tbaa !33
  %4 = getelementptr inbounds nuw %struct.PACKET, ptr %3, i32 0, i32 0
  %5 = load ptr, ptr %4, align 8, !tbaa !29
  %6 = load ptr, ptr %2, align 8, !tbaa !33
  %7 = getelementptr inbounds nuw %struct.PACKET, ptr %6, i32 0, i32 1
  %8 = load i64, ptr %7, align 8, !tbaa !31
  %9 = call ptr @memchr(ptr noundef %5, i32 noundef 0, i64 noundef %8) #8
  %10 = icmp ne ptr %9, null
  %11 = zext i1 %10 to i32
  ret i32 %11
}

; Function Attrs: inlinehint nounwind uwtable
define internal i32 @PACKET_buf_init(ptr noundef %0, ptr noundef %1, i64 noundef %2) #4 {
  %4 = alloca i32, align 4
  %5 = alloca ptr, align 8
  %6 = alloca ptr, align 8
  %7 = alloca i64, align 8
  store ptr %0, ptr %5, align 8, !tbaa !33
  store ptr %1, ptr %6, align 8, !tbaa !13
  store i64 %2, ptr %7, align 8, !tbaa !11
  %8 = load i64, ptr %7, align 8, !tbaa !11
  %9 = icmp ugt i64 %8, 9223372036854775807
  br i1 %9, label %10, label %11

10:                                               ; preds = %3
  store i32 0, ptr %4, align 4
  br label %18

11:                                               ; preds = %3
  %12 = load ptr, ptr %6, align 8, !tbaa !13
  %13 = load ptr, ptr %5, align 8, !tbaa !33
  %14 = getelementptr inbounds nuw %struct.PACKET, ptr %13, i32 0, i32 0
  store ptr %12, ptr %14, align 8, !tbaa !29
  %15 = load i64, ptr %7, align 8, !tbaa !11
  %16 = load ptr, ptr %5, align 8, !tbaa !33
  %17 = getelementptr inbounds nuw %struct.PACKET, ptr %16, i32 0, i32 1
  store i64 %15, ptr %17, align 8, !tbaa !31
  store i32 1, ptr %4, align 4
  br label %18

18:                                               ; preds = %11, %10
  %19 = load i32, ptr %4, align 4
  ret i32 %19
}

; Function Attrs: nounwind uwtable
define internal i32 @test_PACKET_contains_zero_byte() #0 {
  %1 = alloca i32, align 4
  %2 = alloca [10 x i8], align 1
  %3 = alloca [10 x i8], align 1
  %4 = alloca %struct.PACKET, align 8
  %5 = alloca i32, align 4
  call void @llvm.lifetime.start.p0(i64 10, ptr %2) #7
  call void @llvm.lifetime.start.p0(i64 10, ptr %3) #7
  call void @llvm.lifetime.start.p0(i64 16, ptr %4) #7
  %6 = getelementptr inbounds [10 x i8], ptr %2, i64 0, i64 0
  call void @llvm.memset.p0.i64(ptr align 1 %6, i8 120, i64 10, i1 false)
  %7 = getelementptr inbounds [10 x i8], ptr %3, i64 0, i64 0
  call void @llvm.memset.p0.i64(ptr align 1 %7, i8 121, i64 10, i1 false)
  %8 = getelementptr inbounds [10 x i8], ptr %3, i64 0, i64 5
  store i8 0, ptr %8, align 1, !tbaa !8
  %9 = getelementptr inbounds [10 x i8], ptr %2, i64 0, i64 0
  %10 = call i32 @PACKET_buf_init(ptr noundef %4, ptr noundef %9, i64 noundef 10)
  %11 = icmp ne i32 %10, 0
  %12 = zext i1 %11 to i32
  %13 = call i32 @test_true(ptr noundef @.str.25, i32 noundef 277, ptr noundef @.str.94, i32 noundef %12)
  %14 = icmp ne i32 %13, 0
  br i1 %14, label %15, label %34

15:                                               ; preds = %0
  %16 = call i32 @PACKET_contains_zero_byte(ptr noundef %4)
  %17 = icmp ne i32 %16, 0
  %18 = zext i1 %17 to i32
  %19 = call i32 @test_false(ptr noundef @.str.25, i32 noundef 278, ptr noundef @.str.102, i32 noundef %18)
  %20 = icmp ne i32 %19, 0
  br i1 %20, label %21, label %34

21:                                               ; preds = %15
  %22 = getelementptr inbounds [10 x i8], ptr %3, i64 0, i64 0
  %23 = call i32 @PACKET_buf_init(ptr noundef %4, ptr noundef %22, i64 noundef 10)
  %24 = icmp ne i32 %23, 0
  %25 = zext i1 %24 to i32
  %26 = call i32 @test_true(ptr noundef @.str.25, i32 noundef 279, ptr noundef @.str.99, i32 noundef %25)
  %27 = icmp ne i32 %26, 0
  br i1 %27, label %28, label %34

28:                                               ; preds = %21
  %29 = call i32 @PACKET_contains_zero_byte(ptr noundef %4)
  %30 = icmp ne i32 %29, 0
  %31 = zext i1 %30 to i32
  %32 = call i32 @test_true(ptr noundef @.str.25, i32 noundef 280, ptr noundef @.str.102, i32 noundef %31)
  %33 = icmp ne i32 %32, 0
  br i1 %33, label %35, label %34

34:                                               ; preds = %28, %21, %15, %0
  store i32 0, ptr %1, align 4
  store i32 1, ptr %5, align 4
  br label %36

35:                                               ; preds = %28
  store i32 1, ptr %1, align 4
  store i32 1, ptr %5, align 4
  br label %36

36:                                               ; preds = %35, %34
  call void @llvm.lifetime.end.p0(i64 16, ptr %4) #7
  call void @llvm.lifetime.end.p0(i64 10, ptr %3) #7
  call void @llvm.lifetime.end.p0(i64 10, ptr %2) #7
  %37 = load i32, ptr %1, align 4
  ret i32 %37
}