; Function Attrs: nounwind uwtable
define internal range(i32 0, 2) i32 @test_PACKET_contains_zero_byte() #0 {
  %1 = alloca [10 x i8], align 1
  %2 = alloca [10 x i8], align 1
  call void @llvm.lifetime.start.p0(i64 10, ptr nonnull %1) #6
  call void @llvm.lifetime.start.p0(i64 10, ptr nonnull %2) #6
  call void @llvm.memset.p0.i64(ptr noundef nonnull align 1 dereferenceable(10) %1, i8 120, i64 10, i1 false)
  call void @llvm.memset.p0.i64(ptr noundef nonnull align 1 dereferenceable(10) %2, i8 121, i64 10, i1 false)
  %3 = getelementptr inbounds nuw i8, ptr %2, i64 5
  store i8 0, ptr %3, align 1, !tbaa !4
  %4 = tail call i32 @test_true(ptr noundef nonnull @.str.25, i32 noundef 277, ptr noundef nonnull @.str.94, i32 noundef 1) #6
  %.not = icmp eq i32 %4, 0
  br i1 %.not, label %17, label %5

5:                                                ; preds = %0
  %6 = call ptr @memchr(ptr noundef nonnull readonly dereferenceable(1) %1, i32 noundef 0, i64 noundef 10) #7
  %7 = icmp ne ptr %6, null
  %8 = zext i1 %7 to i32
  %9 = call i32 @test_false(ptr noundef nonnull @.str.25, i32 noundef 278, ptr noundef nonnull @.str.102, i32 noundef %8) #6
  %.not1 = icmp eq i32 %9, 0
  br i1 %.not1, label %17, label %10

10:                                               ; preds = %5
  %11 = call i32 @test_true(ptr noundef nonnull @.str.25, i32 noundef 279, ptr noundef nonnull @.str.99, i32 noundef 1) #6
  %.not2 = icmp eq i32 %11, 0
  br i1 %.not2, label %17, label %12

12:                                               ; preds = %10
  %13 = call ptr @memchr(ptr noundef nonnull readonly dereferenceable(1) %2, i32 noundef 0, i64 noundef 10) #7
  %14 = icmp ne ptr %13, null
  %15 = zext i1 %14 to i32
  %16 = call i32 @test_true(ptr noundef nonnull @.str.25, i32 noundef 280, ptr noundef nonnull @.str.102, i32 noundef %15) #6
  %.not3 = icmp ne i32 %16, 0
  %spec.select = zext i1 %.not3 to i32
  br label %17

17:                                               ; preds = %12, %0, %5, %10
  %.0 = phi i32 [ 0, %10 ], [ 0, %5 ], [ 0, %0 ], [ %spec.select, %12 ]
  call void @llvm.lifetime.end.p0(i64 10, ptr nonnull %2) #6
  call void @llvm.lifetime.end.p0(i64 10, ptr nonnull %1) #6
  ret i32 %.0
}